target datalayout = "e-m:e-p270:32:32-p271:32:32-p272:64:64-i64:64-i128:128-f80:128-n8:16:32:64-S128"
target triple = "x86_64-unknown-linux-gnu"

%"class.icu_75::RuleBasedBreakIterator" = type <{ %"class.icu_75::BreakIterator.base", i8, %struct.UText, ptr, i32, i32, i32, [4 x i8], ptr, ptr, ptr, ptr, i32, [4 x i8], ptr, %"class.icu_75::UCharCharacterIterator", i8, [7 x i8], ptr, i8, [7 x i8] }>
%"class.icu_75::BreakIterator.base" = type <{ %"class.icu_75::UObject", [157 x i8], [157 x i8], [157 x i8] }>
%"class.icu_75::UObject" = type { ptr }
%struct.UText = type { i32, i32, i32, i32, i64, i32, i32, i64, i32, i32, ptr, ptr, ptr, ptr, ptr, ptr, ptr, ptr, i64, i32, i32, i64, i32, i32 }
%"class.icu_75::UCharCharacterIterator" = type { %"class.icu_75::CharacterIterator", ptr }
%"class.icu_75::CharacterIterator" = type { %"class.icu_75::ForwardCharacterIterator", i32, i32, i32, i32 }
%"class.icu_75::ForwardCharacterIterator" = type { %"class.icu_75::UObject" }
%"class.icu_75::RBBIDataWrapper" = type <{ ptr, ptr, ptr, ptr, ptr, i32, [4 x i8], ptr, %"struct.std::atomic", [4 x i8], ptr, %"class.icu_75::UnicodeString", i8, [7 x i8] }>
%"struct.std::atomic" = type { %"struct.std::__atomic_base" }
%"struct.std::__atomic_base" = type { i32 }
%"class.icu_75::UnicodeString" = type { %"class.icu_75::Replaceable", %"union.icu_75::UnicodeString::StackBufferOrFields" }
%"class.icu_75::Replaceable" = type { %"class.icu_75::UObject" }
%"union.icu_75::UnicodeString::StackBufferOrFields" = type { %struct.anon.0, [32 x i8] }
%struct.anon.0 = type { i16, i32, i32, ptr }

; Function Attrs: mustprogress nounwind uwtable
define noundef i32 @_ZNK6icu_7522RuleBasedBreakIterator13getRuleStatusEv(ptr noundef nonnull align 8 dereferenceable(745) %this) unnamed_addr #0 align 2 {
entry:
  %this.addr = alloca ptr, align 8
  %idx = alloca i32, align 4
  %tagVal = alloca i32, align 4
  store ptr %this, ptr %this.addr, align 8
  %this1 = load ptr, ptr %this.addr, align 8
  %fRuleStatusIndex = getelementptr inbounds %"class.icu_75::RuleBasedBreakIterator", ptr %this1, i32 0, i32 6
  %0 = load i32, ptr %fRuleStatusIndex, align 8
  %fData = getelementptr inbounds %"class.icu_75::RuleBasedBreakIterator", ptr %this1, i32 0, i32 3
  %1 = load ptr, ptr %fData, align 8
  %fRuleStatusTable = getelementptr inbounds %"class.icu_75::RBBIDataWrapper", ptr %1, i32 0, i32 4
  %2 = load ptr, ptr %fRuleStatusTable, align 8
  %fRuleStatusIndex2 = getelementptr inbounds %"class.icu_75::RuleBasedBreakIterator", ptr %this1, i32 0, i32 6
  %3 = load i32, ptr %fRuleStatusIndex2, align 8
  %idxprom = sext i32 %3 to i64
  %arrayidx = getelementptr inbounds i32, ptr %2, i64 %idxprom
  %4 = load i32, ptr %arrayidx, align 4
  %add = add nsw i32 %0, %4
  store i32 %add, ptr %idx, align 4
  %fData3 = getelementptr inbounds %"class.icu_75::RuleBasedBreakIterator", ptr %this1, i32 0, i32 3
  %5 = load ptr, ptr %fData3, align 8
  %fRuleStatusTable4 = getelementptr inbounds %"class.icu_75::RBBIDataWrapper", ptr %5, i32 0, i32 4
  %6 = load ptr, ptr %fRuleStatusTable4, align 8
  %7 = load i32, ptr %idx, align 4
  %idxprom5 = sext i32 %7 to i64
  %arrayidx6 = getelementptr inbounds i32, ptr %6, i64 %idxprom5
  %8 = load i32, ptr %arrayidx6, align 4
  store i32 %8, ptr %tagVal, align 4
  %9 = load i32, ptr %tagVal, align 4
  ret i32 %9
}