; Function Attrs: mustprogress nofree norecurse nosync nounwind willreturn memory(read, inaccessiblemem: none) uwtable
define noundef i32 @_ZNK6icu_7522RuleBasedBreakIterator13getRuleStatusEv(ptr nocapture noundef nonnull readonly align 8 dereferenceable(745) %this) unnamed_addr #8 align 2 {
entry:
  %fRuleStatusIndex = getelementptr inbounds i8, ptr %this, i64 640
  %0 = load i32, ptr %fRuleStatusIndex, align 8
  %fData = getelementptr inbounds i8, ptr %this, i64 624
  %1 = load ptr, ptr %fData, align 8
  %fRuleStatusTable = getelementptr inbounds i8, ptr %1, i64 32
  %2 = load ptr, ptr %fRuleStatusTable, align 8
  %idxprom = sext i32 %0 to i64
  %arrayidx = getelementptr inbounds i32, ptr %2, i64 %idxprom
  %3 = load i32, ptr %arrayidx, align 4
  %add = add nsw i32 %3, %0
  %idxprom5 = sext i32 %add to i64
  %arrayidx6 = getelementptr inbounds i32, ptr %2, i64 %idxprom5
  %4 = load i32, ptr %arrayidx6, align 4
  ret i32 %4
}